target datalayout = "e-m:e-p270:32:32-p271:32:32-p272:64:64-i64:64-i128:128-f80:128-n8:16:32:64-S128"
target triple = "x86_64-pc-linux-gnu"

%struct.LodePNGColorStats = type { i32, i32, i16, i16, i16, i32, i32, [1024 x i8], i32, i64, i32, i32 }

; Function Attrs: mustprogress nounwind uwtable
define void @_Z24lodepng_color_stats_initP17LodePNGColorStats(ptr noundef %0) #3 {
  %2 = alloca ptr, align 8
  store ptr %0, ptr %2, align 8, !tbaa !217
  %3 = load ptr, ptr %2, align 8, !tbaa !217
  %4 = getelementptr inbounds nuw %struct.LodePNGColorStats, ptr %3, i32 0, i32 0
  store i32 0, ptr %4, align 8, !tbaa !219
  %5 = load ptr, ptr %2, align 8, !tbaa !217
  %6 = getelementptr inbounds nuw %struct.LodePNGColorStats, ptr %5, i32 0, i32 1
  store i32 0, ptr %6, align 4, !tbaa !221
  %7 = load ptr, ptr %2, align 8, !tbaa !217
  %8 = getelementptr inbounds nuw %struct.LodePNGColorStats, ptr %7, i32 0, i32 4
  store i16 0, ptr %8, align 4, !tbaa !222
  %9 = load ptr, ptr %2, align 8, !tbaa !217
  %10 = getelementptr inbounds nuw %struct.LodePNGColorStats, ptr %9, i32 0, i32 3
  store i16 0, ptr %10, align 2, !tbaa !223
  %11 = load ptr, ptr %2, align 8, !tbaa !217
  %12 = getelementptr inbounds nuw %struct.LodePNGColorStats, ptr %11, i32 0, i32 2
  store i16 0, ptr %12, align 8, !tbaa !224
  %13 = load ptr, ptr %2, align 8, !tbaa !217
  %14 = getelementptr inbounds nuw %struct.LodePNGColorStats, ptr %13, i32 0, i32 5
  store i32 0, ptr %14, align 8, !tbaa !225
  %15 = load ptr, ptr %2, align 8, !tbaa !217
  %16 = getelementptr inbounds nuw %struct.LodePNGColorStats, ptr %15, i32 0, i32 6
  store i32 0, ptr %16, align 4, !tbaa !226
  %17 = load ptr, ptr %2, align 8, !tbaa !217
  %18 = getelementptr inbounds nuw %struct.LodePNGColorStats, ptr %17, i32 0, i32 8
  store i32 1, ptr %18, align 8, !tbaa !227
  %19 = load ptr, ptr %2, align 8, !tbaa !217
  %20 = getelementptr inbounds nuw %struct.LodePNGColorStats, ptr %19, i32 0, i32 9
  store i64 0, ptr %20, align 8, !tbaa !228
  %21 = load ptr, ptr %2, align 8, !tbaa !217
  %22 = getelementptr inbounds nuw %struct.LodePNGColorStats, ptr %21, i32 0, i32 10
  store i32 1, ptr %22, align 8, !tbaa !229
  %23 = load ptr, ptr %2, align 8, !tbaa !217
  %24 = getelementptr inbounds nuw %struct.LodePNGColorStats, ptr %23, i32 0, i32 11
  store i32 1, ptr %24, align 4, !tbaa !230
  ret void
}