; Function Attrs: mustprogress nofree norecurse nosync nounwind willreturn memory(argmem: write) uwtable
define void @_Z24lodepng_color_stats_initP17LodePNGColorStats(ptr noundef writeonly captures(none) initializes((0, 14), (16, 24), (1048, 1052), (1056, 1072)) %0) local_unnamed_addr #6 {
  %2 = getelementptr inbounds nuw i8, ptr %0, i64 16
  store i32 0, ptr %2, align 8, !tbaa !368
  %3 = getelementptr inbounds nuw i8, ptr %0, i64 20
  store i32 0, ptr %3, align 4, !tbaa !370
  %4 = getelementptr inbounds nuw i8, ptr %0, i64 1048
  tail call void @llvm.memset.p0.i64(ptr noundef nonnull align 8 dereferenceable(14) %0, i8 0, i64 14, i1 false)
  store i32 1, ptr %4, align 8, !tbaa !371
  %5 = getelementptr inbounds nuw i8, ptr %0, i64 1056
  store i64 0, ptr %5, align 8, !tbaa !372
  %6 = getelementptr inbounds nuw i8, ptr %0, i64 1064
  store i32 1, ptr %6, align 8, !tbaa !373
  %7 = getelementptr inbounds nuw i8, ptr %0, i64 1068
  store i32 1, ptr %7, align 4, !tbaa !374
  ret void
}